Certificate:
    Data:
        Version: 1 (0x0)
        Serial Number: 5119952911 (0x1312c480f)
        Signature Algorithm: sha256WithRSAEncryption
        Issuer: CN=new-Corp-Sec CA, C=US, ST=MA, L=Boston, O=Corp-Sec
        Validity
            Not Before: Mar  1 23:59:59 2024 GMT
            Not After : Mar  1 23:59:59 2026 GMT
        Subject: C=US, ST=MA, L=Boston, CN=d419d4fc7351fa8d66a4ea23584a8da7
        Subject Public Key Info:
            Public Key Algorithm: rsaEncryption
                Public-Key: (4096 bit)
                Modulus:
                    00:af:77:bd:df:d4:06:67:57:63:33:ca:81:5c:63:
                    4d:22:4f:d3:b2:8b:44:f0:25:24:b3:f9:3f:4c:92:
                    bb:e5:2c:a2:60:78:dc:46:e5:ea:3c:76:d9:03:6a:
                    30:1f:b2:8d:13:c2:67:bb:b9:cb:12:f7:1b:eb:5d:
                    78:a8:10:12:65:69:ba:79:f8:a6:26:75:c3:a2:54:
                    04:91:06:cc:52:0b:8e:63:aa:f4:32:ee:60:a8:6a:
                    dd:51:cf:0e:8e:83:43:47:55:a5:95:2e:2e:70:41:
                    e8:8e:56:c2:0e:59:62:4e:60:3b:e3:f7:71:e3:d2:
                    37:9e:a5:9b:27:23:bc:8e:91:53:3f:cd:02:80:15:
                    3d:ef:53:44:31:9b:30:b2:43:d0:06:fb:e9:4a:d1:
                    21:89:f5:4b:66:76:c5:51:02:33:94:f2:7d:75:66:
                    8b:c0:e4:58:d8:3a:3f:4e:5d:c3:d8:17:71:dd:f6:
                    b6:62:40:4d:ad:ea:4d:d0:44:fc:d6:64:a6:5c:c5:
                    45:b0:89:79:29:ce:a9:00:bb:2b:21:a6:98:f5:44:
                    83:b3:a3:5a:d4:c1:08:e5:15:a9:fa:c0:09:9d:7b:
                    e8:0b:be:8b:ab:01:a3:7d:93:a3:31:f9:79:9c:9b:
                    bd:6b:0f:e6:7d:c6:e8:d3:d7:67:67:fd:72:ac:4a:
                    9c:c3:60:3b:88:b1:83:30:ab:99:1b:6f:b0:ff:70:
                    8f:e2:55:db:c3:dc:41:4d:fb:eb:36:49:c9:ef:7c:
                    a2:df:b8:f2:84:ec:cc:90:7a:4e:c4:98:e2:2d:e1:
                    08:0a:4e:54:ce:e6:f6:51:d8:b7:a2:4d:1c:17:e3:
                    c0:57:4f:24:3c:89:1e:aa:1d:d5:15:9c:a5:26:b0:
                    6b:fc:c5:3b:b3:a0:76:0b:21:5b:56:fa:1d:2f:48:
                    e7:09:20:23:1d:e4:79:e9:86:5c:ab:15:d9:83:0f:
                    2d:20:ad:a2:25:ac:3e:ae:e1:13:b4:e9:bd:ca:00:
                    79:e7:13:42:da:5b:87:8a:d6:c9:8f:a5:5d:06:02:
                    24:1b:85:68:46:9a:29:31:39:4a:1b:aa:54:f0:da:
                    eb:05:b2:c9:07:fb:9d:f9:9c:18:6a:12:38:80:b7:
                    5b:d4:8a:0c:45:7b:d3:00:01:48:c1:53:17:ba:2e:
                    8b:71:d3:b7:ae:8c:ea:77:4a:3d:35:f1:09:a2:a8:
                    ed:5e:db:28:68:98:ce:69:89:78:0a:8a:4e:9e:cf:
                    a9:0d:b8:50:49:66:11:27:80:af:cb:32:46:ce:d1:
                    b1:c3:39:36:de:35:00:41:71:11:bb:ca:76:71:6c:
                    05:be:b4:70:13:04:40:01:8b:9f:99:96:63:8b:15:
                    35:7a:c5
                Exponent: 65537 (0x10001)
        X509v3 extensions:
            X509v3 Basic Constraints: critical
                CA:FALSE
            Netscape Cert Type: 
                SSL Client
            X509v3 Key Usage: critical
                Digital Signature, Non Repudiation, Key Encipherment
            X509v3 Extended Key Usage: critical
                TLS Web Client Authentication
            X509v3 Subject Key Identifier: 
                C6:75:D2:33:78:51:E0:77:D9:86:A2:53:BE:CB:E9:81:0C:2C:76:FF
            X509v3 Authority Key Identifier: 
                keyid:7B:F1:A4:16:38:AA:6D:2B:E4:1B:35:5F:42:2C:09:AC:88:22:F4:EB
                DirName:/CN=new-Corp-Sec CA/C=US/ST=MA/L=Boston/O=Corp-Sec
                serial:62:3C:99:26:A6:1D:18:BF
    Signature Algorithm: sha256WithRSAEncryption
    Signature Value:
        7c:da:ee:d6:3b:cd:7c:24:72:14:02:4f:9e:66:98:32:21:4d:
        42:38:40:f3:40:f2:47:59:06:84:01:cf:0c:3a:c1:5f:3d:55:
        61:f9:42:e3:a9:fb:77:36:6f:8a:27:66:29:e3:28:dd:ed:a5:
        6a:c6:59:35:cd:2e:8b:8b:5d:f5:6e:fd:2b:3c:80:fb:84:cc:
        2d:30:cc:7c:50:cf:e4:d9:58:fd:01:d3:5e:e4:ec:21:ee:50:
        8e:8d:ab:ef:c3:fa:89:de:1e:d3:aa:84:ac:d5:93:d8:ef:b0:
        97:27:f8:2a:69:bd:d3:33:de:a6:48:86:de:27:de:35:2e:dd:
        44:5c:16:4c:30:21:4f:12:a5:11:0c:30:eb:3f:b9:47:ff:83:
        7b:91:a1:55:72:9f:57:03:bb:53:81:d6:57:6c:22:06:65:59:
        a9:57:ad:f2:0a:9e:27:ec:c1:bb:90:b0:9c:d1:cf:25:0a:89:
        11:20:54:78:5c:9b:3d:ca:aa:67:8f:2f:72:61:c2:8f:26:59:
        02:30:51:7b:9f:fc:c2:3c:b5:cd:6c:03:ed:bd:ea:3c:48:56:
        29:89:1a:ae:14:4c:f3:32:65:9e:d3:c9:f1:2e:ed:93:74:79:
        bc:53:d8:12:8c:f1:b7:9b:e4:f4:af:61:23:b1:86:b2:46:f9:
        66:0f:69:07
-----BEGIN CERTIFICATE-----
MIIFIzCCBAsCBQExLEgPMA0GCSqGSIb3DQEBCwUAMFgxGDAWBgNVBAMTD25ldy1D
b3JwLVNlYyBDQTELMAkGA1UEBhMCVVMxCzAJBgNVBAgTAk1BMQ8wDQYDVQQHEwZC
b3N0b24xETAPBgNVBAoTCENvcnAtU2VjMCIYDzIwMjQwMzAxMjM1OTU5WhgPMjAy
NjAzMDEyMzU5NTlaMFYxCzAJBgNVBAYTAlVTMQswCQYDVQQIDAJNQTEPMA0GA1UE
BwwGQm9zdG9uMSkwJwYDVQQDDCBkNDE5ZDRmYzczNTFmYThkNjZhNGVhMjM1ODRh
OGRhNzCCAiIwDQYJKoZIhvcNAQEBBQADggIPADCCAgoCggIBAK93vd/UBmdXYzPK
gVxjTSJP07KLRPAlJLP5P0ySu+UsomB43Ebl6jx22QNqMB+yjRPCZ7u5yxL3G+td
eKgQEmVpunn4piZ1w6JUBJEGzFILjmOq9DLuYKhq3VHPDo6DQ0dVpZUuLnBB6I5W
wg5ZYk5gO+P3cePSN56lmycjvI6RUz/NAoAVPe9TRDGbMLJD0Ab76UrRIYn1S2Z2
xVECM5TyfXVmi8DkWNg6P05dw9gXcd32tmJATa3qTdBE/NZkplzFRbCJeSnOqQC7
KyGmmPVEg7OjWtTBCOUVqfrACZ176Au+i6sBo32TozH5eZybvWsP5n3G6NPXZ2f9
cqxKnMNgO4ixgzCrmRtvsP9wj+JV28PcQU376zZJye98ot+48oTszJB6TsSY4i3h
CApOVM7m9lHYt6JNHBfjwFdPJDyJHqod1RWcpSawa/zFO7OgdgshW1b6HS9I5wkg
Ix3keemGXKsV2YMPLSCtoiWsPq7hE7TpvcoAeecTQtpbh4rWyY+lXQYCJBuFaEaa
KTE5ShuqVPDa6wWyyQf7nfmcGGoSOIC3W9SKDEV70wABSMFTF7oui3HTt66M6ndK
PTXxCaKo7V7bKGiYzmmJeAqKTp7PqQ24UElmESeAr8syRs7RscM5Nt41AEFxEbvK
dnFsBb60cBMEQAGLn5mWY4sVNXrFAgMBAAGjgfYwgfMwDAYDVR0TAQH/BAIwADAR
BglghkgBhvhCAQEEBAMCB4AwDgYDVR0PAQH/BAQDAgXgMBYGA1UdJQEB/wQMMAoG
CCsGAQUFBwMCMB0GA1UdDgQWBBTGddIzeFHgd9mGolO+y+mBDCx2/zCBiAYDVR0j
BIGAMH6AFHvxpBY4qm0r5Bs1X0IsCayIIvTroVykWjBYMRgwFgYDVQQDEw9uZXct
Q29ycC1TZWMgQ0ExCzAJBgNVBAYTAlVTMQswCQYDVQQIEwJNQTEPMA0GA1UEBxMG
Qm9zdG9uMREwDwYDVQQKEwhDb3JwLVNlY4IIYjyZJqYdGL8wDQYJKoZIhvcNAQEL
BQADggEBAHza7tY7zXwkchQCT55mmDIhTUI4QPNA8kdZBoQBzww6wV89VWH5QuOp
+3c2b4onZinjKN3tpWrGWTXNLouLXfVu/Ss8gPuEzC0wzHxQz+TZWP0B017k7CHu
UI6Nq+/D+oneHtOqhKzVk9jvsJcn+CppvdMz3qZIht4n3jUu3URcFkwwIU8SpREM
MOs/uUf/g3uRoVVyn1cDu1OB1ldsIgZlWalXrfIKnifswbuQsJzRzyUKiREgVHhc
mz3KqmePL3Jhwo8mWQIwUXuf/MI8tc1sA+296jxIVimJGq4UTPMyZZ7TyfEu7ZN0
ebxT2BKM8beb5PSvYSOxhrJG+WYPaQc=
-----END CERTIFICATE-----
